target datalayout = "e-m:e-p270:32:32-p271:32:32-p272:64:64-i64:64-i128:128-f80:128-n8:16:32:64-S128"
target triple = "x86_64-pc-linux-gnu"

%class.Ui_LBMLBTRUTransportDialog = type { ptr, ptr, ptr, ptr, ptr, ptr, ptr, ptr, ptr, ptr, ptr, ptr, ptr, ptr, ptr, ptr, ptr, ptr, ptr, ptr, ptr, ptr, ptr, ptr, ptr, ptr, ptr, ptr, ptr, ptr, ptr, ptr, ptr, ptr, ptr, ptr, ptr, ptr, ptr, ptr, ptr, ptr, ptr, ptr, ptr, ptr, ptr, ptr, ptr, ptr, ptr, ptr, ptr, ptr, ptr, ptr, ptr, ptr, ptr, ptr, ptr, ptr, ptr, ptr, ptr, ptr, ptr, ptr, ptr, ptr, ptr, ptr, ptr, ptr, ptr, ptr, ptr, ptr, ptr, ptr, ptr, ptr, ptr, ptr, ptr, ptr, ptr, ptr, ptr, ptr, ptr, ptr }
%class.LBMLBTRUTransportDialog = type { %class.QDialog, ptr, ptr, ptr, ptr, ptr, ptr, ptr, ptr, ptr }
%class.QDialog = type { %class.QWidget }
%class.QWidget = type { %class.QObject, %class.QPaintDevice.base, ptr }
%class.QObject = type { ptr, %class.QScopedPointer }
%class.QScopedPointer = type { ptr }
%class.QPaintDevice.base = type <{ ptr, i16 }>

; Function Attrs: mustprogress null_pointer_is_valid sspstrong uwtable
define void @_ZN23LBMLBTRUTransportDialog27sourcesDetailCurrentChangedEi(ptr noundef align 8 dereferenceable_or_null(112) %0, i32 noundef %1) #0 align 2 {
  %3 = alloca ptr, align 8
  %4 = alloca i32, align 4
  store ptr %0, ptr %3, align 8
  store i32 %1, ptr %4, align 4
  %5 = load ptr, ptr %3, align 8
  %6 = load i32, ptr %4, align 4
  switch i32 %6, label %22 [
    i32 0, label %7
    i32 1, label %7
    i32 3, label %7
    i32 2, label %12
    i32 4, label %17
  ]

7:                                                ; preds = %2, %2, %2
  %8 = getelementptr inbounds nuw %class.LBMLBTRUTransportDialog, ptr %5, i32 0, i32 1
  %9 = load ptr, ptr %8, align 8
  %10 = getelementptr inbounds nuw %class.Ui_LBMLBTRUTransportDialog, ptr %9, i32 0, i32 58
  %11 = load ptr, ptr %10, align 8
  call void @_ZN14QStackedWidget15setCurrentIndexEi(ptr noundef align 8 dereferenceable_or_null(40) %11, i32 noundef 0)
  br label %23

12:                                               ; preds = %2
  %13 = getelementptr inbounds nuw %class.LBMLBTRUTransportDialog, ptr %5, i32 0, i32 1
  %14 = load ptr, ptr %13, align 8
  %15 = getelementptr inbounds nuw %class.Ui_LBMLBTRUTransportDialog, ptr %14, i32 0, i32 58
  %16 = load ptr, ptr %15, align 8
  call void @_ZN14QStackedWidget15setCurrentIndexEi(ptr noundef align 8 dereferenceable_or_null(40) %16, i32 noundef 2)
  br label %23

17:                                               ; preds = %2
  %18 = getelementptr inbounds nuw %class.LBMLBTRUTransportDialog, ptr %5, i32 0, i32 1
  %19 = load ptr, ptr %18, align 8
  %20 = getelementptr inbounds nuw %class.Ui_LBMLBTRUTransportDialog, ptr %19, i32 0, i32 58
  %21 = load ptr, ptr %20, align 8
  call void @_ZN14QStackedWidget15setCurrentIndexEi(ptr noundef align 8 dereferenceable_or_null(40) %21, i32 noundef 1)
  br label %23

22:                                               ; preds = %2
  br label %26

23:                                               ; preds = %17, %12, %7
  %24 = getelementptr inbounds nuw %class.LBMLBTRUTransportDialog, ptr %5, i32 0, i32 4
  %25 = load ptr, ptr %24, align 8
  call void @_ZN23LBMLBTRUTransportDialog18sourcesItemClickedEP15QTreeWidgetItemi(ptr noundef align 8 dereferenceable_or_null(112) %5, ptr noundef %25, i32 noundef 0)
  br label %26

26:                                               ; preds = %23, %22
  ret void
}